target datalayout = "e-m:e-p270:32:32-p271:32:32-p272:64:64-i64:64-i128:128-f80:128-n8:16:32:64-S128"
target triple = "x86_64-pc-linux-gnu"

%struct.Cec_ParChc_t_ = type { i32, i32, i32, i32, i32, i32, i32 }
%struct.Dch_Pars_t_ = type { i32, i32, i32, i32, i32, i32, i32, i32, i32, i32, i32, i32, i32, i32, i64, i32, i32 }

; Function Attrs: nounwind uwtable
define ptr @Cec_ManChoiceComputation(ptr noundef %0, ptr noundef %1) #0 {
  %3 = alloca ptr, align 8
  %4 = alloca ptr, align 8
  %5 = alloca %struct.Dch_Pars_t_, align 8
  %6 = alloca ptr, align 8
  %7 = alloca ptr, align 8
  %8 = alloca ptr, align 8
  %9 = alloca ptr, align 8
  store ptr %0, ptr %3, align 8, !tbaa !3
  store ptr %1, ptr %4, align 8, !tbaa !54
  call void @llvm.lifetime.start.p0(i64 72, ptr %5) #11
  call void @llvm.lifetime.start.p0(i64 8, ptr %6) #11
  store ptr %5, ptr %6, align 8, !tbaa !85
  call void @llvm.lifetime.start.p0(i64 8, ptr %7) #11
  call void @llvm.lifetime.start.p0(i64 8, ptr %8) #11
  call void @llvm.lifetime.start.p0(i64 8, ptr %9) #11
  %10 = load ptr, ptr %3, align 8, !tbaa !3
  %11 = call ptr @Gia_ManToAig(ptr noundef %10, i32 noundef 0)
  store ptr %11, ptr %7, align 8, !tbaa !87
  %12 = load ptr, ptr %6, align 8, !tbaa !85
  call void @Dch_ManSetDefaultParams(ptr noundef %12)
  %13 = load ptr, ptr %6, align 8, !tbaa !85
  %14 = getelementptr inbounds nuw %struct.Dch_Pars_t_, ptr %13, i32 0, i32 7
  store i32 1, ptr %14, align 4, !tbaa !89
  %15 = load ptr, ptr %4, align 8, !tbaa !54
  %16 = getelementptr inbounds nuw %struct.Cec_ParChc_t_, ptr %15, i32 0, i32 2
  %17 = load i32, ptr %16, align 4, !tbaa !73
  %18 = load ptr, ptr %6, align 8, !tbaa !85
  %19 = getelementptr inbounds nuw %struct.Dch_Pars_t_, ptr %18, i32 0, i32 1
  store i32 %17, ptr %19, align 4, !tbaa !91
  %20 = load ptr, ptr %4, align 8, !tbaa !54
  %21 = getelementptr inbounds nuw %struct.Cec_ParChc_t_, ptr %20, i32 0, i32 4
  %22 = load i32, ptr %21, align 4, !tbaa !78
  %23 = load ptr, ptr %6, align 8, !tbaa !85
  %24 = getelementptr inbounds nuw %struct.Dch_Pars_t_, ptr %23, i32 0, i32 8
  store i32 %22, ptr %24, align 8, !tbaa !92
  %25 = load ptr, ptr %4, align 8, !tbaa !54
  %26 = getelementptr inbounds nuw %struct.Cec_ParChc_t_, ptr %25, i32 0, i32 6
  %27 = load i32, ptr %26, align 4, !tbaa !67
  %28 = load ptr, ptr %6, align 8, !tbaa !85
  %29 = getelementptr inbounds nuw %struct.Dch_Pars_t_, ptr %28, i32 0, i32 13
  store i32 %27, ptr %29, align 4, !tbaa !93
  %30 = load ptr, ptr %7, align 8, !tbaa !87
  %31 = load ptr, ptr %6, align 8, !tbaa !85
  %32 = call ptr @Dar_ManChoiceNew(ptr noundef %30, ptr noundef %31)
  store ptr %32, ptr %8, align 8, !tbaa !87
  %33 = load ptr, ptr %8, align 8, !tbaa !87
  %34 = call ptr @Gia_ManFromAig(ptr noundef %33)
  store ptr %34, ptr %9, align 8, !tbaa !3
  %35 = load ptr, ptr %8, align 8, !tbaa !87
  call void @Aig_ManStop(ptr noundef %35)
  %36 = load ptr, ptr %9, align 8, !tbaa !3
  call void @llvm.lifetime.end.p0(i64 8, ptr %9) #11
  call void @llvm.lifetime.end.p0(i64 8, ptr %8) #11
  call void @llvm.lifetime.end.p0(i64 8, ptr %7) #11
  call void @llvm.lifetime.end.p0(i64 8, ptr %6) #11
  call void @llvm.lifetime.end.p0(i64 72, ptr %5) #11
  ret ptr %36
}