; Function Attrs: nounwind uwtable
define ptr @Cec_ManChoiceComputation(ptr noundef %0, ptr noundef readonly captures(none) %1) local_unnamed_addr #0 {
  %3 = alloca %struct.Dch_Pars_t_, align 8
  call void @llvm.lifetime.start.p0(i64 72, ptr nonnull %3) #16
  %4 = tail call ptr @Gia_ManToAig(ptr noundef %0, i32 noundef 0) #16
  call void @Dch_ManSetDefaultParams(ptr noundef nonnull %3) #16
  %5 = getelementptr inbounds nuw i8, ptr %3, i64 28
  store i32 1, ptr %5, align 4, !tbaa !77
  %6 = getelementptr inbounds nuw i8, ptr %1, i64 8
  %7 = load i32, ptr %6, align 4, !tbaa !62
  %8 = getelementptr inbounds nuw i8, ptr %3, i64 4
  store i32 %7, ptr %8, align 4, !tbaa !79
  %9 = getelementptr inbounds nuw i8, ptr %1, i64 16
  %10 = load i32, ptr %9, align 4, !tbaa !67
  %11 = getelementptr inbounds nuw i8, ptr %3, i64 32
  store i32 %10, ptr %11, align 8, !tbaa !80
  %12 = getelementptr inbounds nuw i8, ptr %1, i64 24
  %13 = load i32, ptr %12, align 4, !tbaa !58
  %14 = getelementptr inbounds nuw i8, ptr %3, i64 52
  store i32 %13, ptr %14, align 4, !tbaa !81
  %15 = call ptr @Dar_ManChoiceNew(ptr noundef %4, ptr noundef nonnull %3) #16
  %16 = call ptr @Gia_ManFromAig(ptr noundef %15) #16
  call void @Aig_ManStop(ptr noundef %15) #16
  call void @llvm.lifetime.end.p0(i64 72, ptr nonnull %3) #16
  ret ptr %16
}